target datalayout = "e-m:e-p270:32:32-p271:32:32-p272:64:64-i64:64-i128:128-f80:128-n8:16:32:64-S128"
target triple = "x86_64-unknown-linux-gnu"

%"class.sat::scc" = type { ptr, i8, i8, i32, i32, %"class.sat::big" }
%"class.sat::big" = type { ptr, i32, %class.vector, %class.svector, %class.svector.1, %class.svector.1, %class.svector.3, %class.svector.3, i8, i8, %class.vector }
%class.svector = type { %class.vector.0 }
%class.vector.0 = type { ptr }
%class.svector.1 = type { %class.vector.2 }
%class.vector.2 = type { ptr }
%class.svector.3 = type { %class.vector.4 }
%class.vector.4 = type { ptr }
%class.vector = type { ptr }

; Function Attrs: mustprogress uwtable
define linkonce_odr hidden void @_ZN3sat3scc8init_bigEb(ptr noundef nonnull align 8 dereferenceable(104) %this, i1 noundef zeroext %learned) #5 comdat align 2 {
entry:
  %this.addr = alloca ptr, align 8
  %learned.addr = alloca i8, align 1
  store ptr %this, ptr %this.addr, align 8
  %frombool = zext i1 %learned to i8
  store i8 %frombool, ptr %learned.addr, align 1
  %this1 = load ptr, ptr %this.addr, align 8
  %m_big = getelementptr inbounds %"class.sat::scc", ptr %this1, i32 0, i32 5
  %m_solver = getelementptr inbounds %"class.sat::scc", ptr %this1, i32 0, i32 0
  %0 = load ptr, ptr %m_solver, align 8
  %1 = load i8, ptr %learned.addr, align 1
  %tobool = trunc i8 %1 to i1
  call void @_ZN3sat3big4initERNS_6solverEb(ptr noundef nonnull align 8 dereferenceable(80) %m_big, ptr noundef nonnull align 8 dereferenceable(4408) %0, i1 noundef zeroext %tobool)
  ret void
}

; Function Attrs: mustprogress uwtable
define hidden noundef i32 @_ZN3sat3scc9reduce_trEb(ptr noundef nonnull align 8 dereferenceable(104) %this, i1 noundef zeroext %learned) #5 align 2 {
entry:
  %this.addr = alloca ptr, align 8
  %learned.addr = alloca i8, align 1
  %num_elim = alloca i32, align 4
  store ptr %this, ptr %this.addr, align 8
  %frombool = zext i1 %learned to i8
  store i8 %frombool, ptr %learned.addr, align 1
  %this1 = load ptr, ptr %this.addr, align 8
  %0 = load i8, ptr %learned.addr, align 1
  %tobool = trunc i8 %0 to i1
  call void @_ZN3sat3scc8init_bigEb(ptr noundef nonnull align 8 dereferenceable(104) %this1, i1 noundef zeroext %tobool)
  %m_big = getelementptr inbounds %"class.sat::scc", ptr %this1, i32 0, i32 5
  %m_solver = getelementptr inbounds %"class.sat::scc", ptr %this1, i32 0, i32 0
  %1 = load ptr, ptr %m_solver, align 8
  %call = call noundef i32 @_ZN3sat3big9reduce_trERNS_6solverE(ptr noundef nonnull align 8 dereferenceable(80) %m_big, ptr noundef nonnull align 8 dereferenceable(4408) %1)
  store i32 %call, ptr %num_elim, align 4
  %2 = load i32, ptr %num_elim, align 4
  %m_num_elim_bin = getelementptr inbounds %"class.sat::scc", ptr %this1, i32 0, i32 4
  %3 = load i32, ptr %m_num_elim_bin, align 8
  %add = add i32 %3, %2
  store i32 %add, ptr %m_num_elim_bin, align 8
  %4 = load i32, ptr %num_elim, align 4
  ret i32 %4
}