; Function Attrs: mustprogress uwtable
define hidden noundef i32 @_ZN3sat3scc9reduce_trEb(ptr noundef nonnull align 8 dereferenceable(104) %this, i1 noundef zeroext %learned) local_unnamed_addr #3 align 2 {
entry:
  %m_big.i = getelementptr inbounds i8, ptr %this, i64 24
  %0 = load ptr, ptr %this, align 8
  tail call void @_ZN3sat3big4initERNS_6solverEb(ptr noundef nonnull align 8 dereferenceable(80) %m_big.i, ptr noundef nonnull align 8 dereferenceable(4408) %0, i1 noundef zeroext %learned)
  %1 = load ptr, ptr %this, align 8
  %call = tail call noundef i32 @_ZN3sat3big9reduce_trERNS_6solverE(ptr noundef nonnull align 8 dereferenceable(80) %m_big.i, ptr noundef nonnull align 8 dereferenceable(4408) %1)
  %m_num_elim_bin = getelementptr inbounds i8, ptr %this, i64 16
  %2 = load i32, ptr %m_num_elim_bin, align 8
  %add = add i32 %2, %call
  store i32 %add, ptr %m_num_elim_bin, align 8
  ret i32 %call
}